Certificate:
    Data:
        Version: 3 (0x2)
        Serial Number: 1 (0x1)
    Signature Algorithm: sha1WithRSAEncryption
        Issuer: C=US, ST=Unset, L=Unset, O=Unset, CN=www.example.com
        Validity
            Not Before: Jan 29 21:17:53 2014 GMT
            Not After : Jan 27 21:17:53 2024 GMT
        Subject: C=US, ST=Unset, O=Unset, CN=www.example.com
        Subject Public Key Info:
            Public Key Algorithm: rsaEncryption
                Public-Key: (2048 bit)
                Modulus:
                    00:99:ba:d8:2b:7d:02:10:b8:55:05:7c:f0:d4:03:
                    77:87:aa:8a:c4:cc:b3:93:76:f0:c1:b3:ca:c3:8e:
                    6e:27:f7:43:b5:db:2f:4e:3d:74:98:09:10:ab:80:
                    3e:a3:79:a5:b0:3a:63:17:3d:7d:30:6f:19:32:ef:
                    93:e1:df:6b:6a:f9:d0:00:6b:0f:ed:f3:64:42:58:
                    68:54:f3:11:71:ca:57:df:35:4e:02:ff:6c:10:f7:
                    90:02:d0:6e:83:ca:f7:3b:3d:ea:58:6c:26:a2:f4:
                    02:16:f4:8d:19:40:59:b7:04:e2:fa:74:1a:3e:46:
                    9e:e0:b1:a8:ad:df:61:76:66:20:63:9b:b7:37:40:
                    5b:b1:6d:b1:bd:22:12:2f:91:c9:a8:77:21:23:12:
                    a8:06:57:15:09:e4:18:7e:54:d9:59:e9:e9:c2:72:
                    04:54:39:a6:d9:b6:ba:c3:d7:76:5c:eb:a9:af:5a:
                    ab:17:d8:90:d0:c8:b9:12:2b:f4:f6:4d:76:c9:ad:
                    b3:b8:0a:38:41:b1:f6:ad:86:06:0f:84:70:24:6b:
                    c4:28:b1:9d:70:1f:3e:db:7e:a1:98:f0:39:53:ee:
                    32:9c:59:9e:af:c3:5f:18:23:f0:ba:e7:cc:bd:36:
                    51:df:60:ea:c9:82:72:bd:b0:d4:15:fc:8c:bb:c3:
                    03:01
                Exponent: 65537 (0x10001)
        X509v3 extensions:
            X509v3 Basic Constraints: 
                CA:FALSE
            X509v3 Subject Key Identifier: 
                5E:4B:48:97:90:54:8C:73:95:EB:7C:BE:C2:26:2C:BB:4A:E9:48:B6
            X509v3 Authority Key Identifier: 
                keyid:11:AC:A2:6D:AB:56:10:32:AE:54:68:7B:A7:5E:FB:AF:AA:51:80:CF

    Signature Algorithm: sha1WithRSAEncryption
         2a:12:9e:7b:22:30:f1:0f:a4:13:10:b2:4d:27:86:9a:66:04:
         21:09:27:e4:ad:64:d7:90:da:e3:c0:0b:57:9e:ab:bb:a5:c6:
         fb:47:58:4b:33:4a:97:48:c7:66:59:c5:fb:12:57:5e:06:39:
         a4:d1:18:21:0c:e6:21:11:26:50:8c:b5:43:68:12:c4:57:ad:
         5a:33:c7:88:d0:b7:63:4a:78:fb:a8:5d:82:85:60:03:6a:e8:
         12:f8:d1:32:a6:39:4e:ad:bc:81:6f:93:95:d8:be:aa:7f:3b:
         e6:b8:f9:8b:f8:7f:1f:b8:81:c6:d0:27:ba:52:2b:c1:13:a3:
         bb:6f:d2:99:47:9e:9a:46:32:22:6f:fd:e3:04:67:c4:0f:25:
         40:15:0f:b1:81:7c:7c:f8:fd:10:8c:21:17:f9:5f:2d:88:6c:
         30:99:c2:3f:36:e8:67:d4:45:32:dc:f3:c7:a9:2f:15:df:04:
         7b:5b:70:de:b2:bf:0a:d3:c4:8f:ab:0a:4a:1b:46:18:53:a7:
         a9:94:c3:f1:a3:ef:e6:fb:ac:c6:43:81:b3:f5:07:67:b1:77:
         60:bd:9b:2c:c2:69:55:5f:b9:c0:c3:85:3d:94:fc:fa:bb:b7:
         a1:6a:11:18:4b:b7:bf:5f:c9:54:29:57:dd:85:c2:76:6c:b7:
         c3:bd:9e:00
-----BEGIN CERTIFICATE-----
MIIDZjCCAk6gAwIBAgIBATANBgkqhkiG9w0BAQUFADBXMQswCQYDVQQGEwJVUzEO
MAwGA1UECAwFVW5zZXQxDjAMBgNVBAcMBVVuc2V0MQ4wDAYDVQQKDAVVbnNldDEY
MBYGA1UEAwwPd3d3LmV4YW1wbGUuY29tMB4XDTE0MDEyOTIxMTc1M1oXDTI0MDEy
NzIxMTc1M1owRzELMAkGA1UEBhMCVVMxDjAMBgNVBAgMBVVuc2V0MQ4wDAYDVQQK
DAVVbnNldDEYMBYGA1UEAwwPd3d3LmV4YW1wbGUuY29tMIIBIjANBgkqhkiG9w0B
AQEFAAOCAQ8AMIIBCgKCAQEAmbrYK30CELhVBXzw1AN3h6qKxMyzk3bwwbPKw45u
J/dDtdsvTj10mAkQq4A+o3mlsDpjFz19MG8ZMu+T4d9ravnQAGsP7fNkQlhoVPMR
ccpX3zVOAv9sEPeQAtBug8r3Oz3qWGwmovQCFvSNGUBZtwTi+nQaPkae4LGord9h
dmYgY5u3N0BbsW2xvSISL5HJqHchIxKoBlcVCeQYflTZWenpwnIEVDmm2ba6w9d2
XOupr1qrF9iQ0Mi5Eiv09k12ya2zuAo4QbH2rYYGD4RwJGvEKLGdcB8+236hmPA5
U+4ynFmer8NfGCPwuufMvTZR32DqyYJyvbDUFfyMu8MDAQIDAQABo00wSzAJBgNV
HRMEAjAAMB0GA1UdDgQWBBReS0iXkFSMc5XrfL7CJiy7SulItjAfBgNVHSMEGDAW
gBQRrKJtq1YQMq5UaHunXvuvqlGAzzANBgkqhkiG9w0BAQUFAAOCAQEAKhKeeyIw
8Q+kExCyTSeGmmYEIQkn5K1k15Da48ALV56ru6XG+0dYSzNKl0jHZlnF+xJXXgY5
pNEYIQzmIREmUIy1Q2gSxFetWjPHiNC3Y0p4+6hdgoVgA2roEvjRMqY5Tq28gW+T
ldi+qn875rj5i/h/H7iBxtAnulIrwROju2/SmUeemkYyIm/94wRnxA8lQBUPsYF8
fPj9EIwhF/lfLYhsMJnCPzboZ9RFMtzzx6kvFd8Ee1tw3rK/CtPEj6sKShtGGFOn
qZTD8aPv5vusxkOBs/UHZ7F3YL2bLMJpVV+5wMOFPZT8+ru3oWoRGEu3v1/JVClX
3YXCdmy3w72eAA==
-----END CERTIFICATE-----
